target datalayout = "e-m:e-p270:32:32-p271:32:32-p272:64:64-i64:64-f80:128-n8:16:32:64-S128"
target triple = "x86_64-pc-linux-gnu"

@.str = private unnamed_addr constant [3 x i8] c"%d\00", align 1
@.str.1 = private unnamed_addr constant [4 x i8] c"%d \00", align 1
@.str.2 = private unnamed_addr constant [2 x i8] c"\0A\00", align 1

; Function Attrs: noinline nounwind uwtable
define dso_local i32 @main() #0 {
  %1 = alloca i32, align 4
  %2 = alloca [9 x [9 x i32]], align 16
  %3 = alloca [9 x [9 x i32]], align 16
  %4 = alloca i32, align 4
  %5 = alloca i32, align 4
  %6 = alloca i32, align 4
  %7 = alloca i32, align 4
  %8 = alloca i32, align 4
  %9 = alloca i32, align 4
  %10 = alloca i32, align 4
  store i32 0, i32* %1, align 4
  %11 = bitcast [9 x [9 x i32]]* %2 to i8*
  call void @llvm.memset.p0i8.i64(i8* align 16 %11, i8 0, i64 324, i1 false)
  %12 = bitcast [9 x [9 x i32]]* %3 to i8*
  call void @llvm.memset.p0i8.i64(i8* align 16 %12, i8 0, i64 324, i1 false)
  %13 = call i32 (i8*, ...) @__isoc99_scanf(i8* getelementptr inbounds ([3 x i8], [3 x i8]* @.str, i64 0, i64 0), i32* %4)
  %14 = call i32 (i8*, ...) @__isoc99_scanf(i8* getelementptr inbounds ([3 x i8], [3 x i8]* @.str, i64 0, i64 0), i32* %5)
  %15 = load i32, i32* %4, align 4
  %16 = getelementptr inbounds [9 x [9 x i32]], [9 x [9 x i32]]* %3, i64 0, i64 4
  %17 = getelementptr inbounds [9 x i32], [9 x i32]* %16, i64 0, i64 4
  store i32 %15, i32* %17, align 16
  %18 = getelementptr inbounds [9 x [9 x i32]], [9 x [9 x i32]]* %2, i64 0, i64 4
  %19 = getelementptr inbounds [9 x i32], [9 x i32]* %18, i64 0, i64 4
  store i32 %15, i32* %19, align 16
  store i32 1, i32* %6, align 4
  br label %20

20:                                               ; preds = %233, %0
  %21 = load i32, i32* %6, align 4
  %22 = load i32, i32* %5, align 4
  %23 = icmp sle i32 %21, %22
  br i1 %23, label %24, label %236

24:                                               ; preds = %20
  store i32 0, i32* %7, align 4
  br label %25

25:                                               ; preds = %200, %24
  %26 = load i32, i32* %7, align 4
  %27 = icmp sle i32 %26, 8
  br i1 %27, label %28, label %203

28:                                               ; preds = %25
  store i32 0, i32* %8, align 4
  br label %29

29:                                               ; preds = %196, %28
  %30 = load i32, i32* %8, align 4
  %31 = icmp sle i32 %30, 8
  br i1 %31, label %32, label %199

32:                                               ; preds = %29
  %33 = load i32, i32* %7, align 4
  %34 = sext i32 %33 to i64
  %35 = getelementptr inbounds [9 x [9 x i32]], [9 x [9 x i32]]* %2, i64 0, i64 %34
  %36 = load i32, i32* %8, align 4
  %37 = sext i32 %36 to i64
  %38 = getelementptr inbounds [9 x i32], [9 x i32]* %35, i64 0, i64 %37
  %39 = load i32, i32* %38, align 4
  %40 = icmp ne i32 %39, 0
  br i1 %40, label %41, label %195

41:                                               ; preds = %32
  %42 = load i32, i32* %7, align 4
  %43 = sext i32 %42 to i64
  %44 = getelementptr inbounds [9 x [9 x i32]], [9 x [9 x i32]]* %3, i64 0, i64 %43
  %45 = load i32, i32* %8, align 4
  %46 = sext i32 %45 to i64
  %47 = getelementptr inbounds [9 x i32], [9 x i32]* %44, i64 0, i64 %46
  %48 = load i32, i32* %47, align 4
  %49 = load i32, i32* %7, align 4
  %50 = sext i32 %49 to i64
  %51 = getelementptr inbounds [9 x [9 x i32]], [9 x [9 x i32]]* %2, i64 0, i64 %50
  %52 = load i32, i32* %8, align 4
  %53 = sext i32 %52 to i64
  %54 = getelementptr inbounds [9 x i32], [9 x i32]* %51, i64 0, i64 %53
  %55 = load i32, i32* %54, align 4
  %56 = add nsw i32 %48, %55
  %57 = load i32, i32* %7, align 4
  %58 = sext i32 %57 to i64
  %59 = getelementptr inbounds [9 x [9 x i32]], [9 x [9 x i32]]* %3, i64 0, i64 %58
  %60 = load i32, i32* %8, align 4
  %61 = sext i32 %60 to i64
  %62 = getelementptr inbounds [9 x i32], [9 x i32]* %59, i64 0, i64 %61
  store i32 %56, i32* %62, align 4
  %63 = load i32, i32* %7, align 4
  %64 = sext i32 %63 to i64
  %65 = getelementptr inbounds [9 x [9 x i32]], [9 x [9 x i32]]* %2, i64 0, i64 %64
  %66 = load i32, i32* %8, align 4
  %67 = sext i32 %66 to i64
  %68 = getelementptr inbounds [9 x i32], [9 x i32]* %65, i64 0, i64 %67
  %69 = load i32, i32* %68, align 4
  %70 = load i32, i32* %7, align 4
  %71 = sext i32 %70 to i64
  %72 = getelementptr inbounds [9 x [9 x i32]], [9 x [9 x i32]]* %3, i64 0, i64 %71
  %73 = load i32, i32* %8, align 4
  %74 = add nsw i32 %73, 1
  %75 = sext i32 %74 to i64
  %76 = getelementptr inbounds [9 x i32], [9 x i32]* %72, i64 0, i64 %75
  %77 = load i32, i32* %76, align 4
  %78 = add nsw i32 %77, %69
  store i32 %78, i32* %76, align 4
  %79 = load i32, i32* %7, align 4
  %80 = sext i32 %79 to i64
  %81 = getelementptr inbounds [9 x [9 x i32]], [9 x [9 x i32]]* %2, i64 0, i64 %80
  %82 = load i32, i32* %8, align 4
  %83 = sext i32 %82 to i64
  %84 = getelementptr inbounds [9 x i32], [9 x i32]* %81, i64 0, i64 %83
  %85 = load i32, i32* %84, align 4
  %86 = load i32, i32* %7, align 4
  %87 = sext i32 %86 to i64
  %88 = getelementptr inbounds [9 x [9 x i32]], [9 x [9 x i32]]* %3, i64 0, i64 %87
  %89 = load i32, i32* %8, align 4
  %90 = sub nsw i32 %89, 1
  %91 = sext i32 %90 to i64
  %92 = getelementptr inbounds [9 x i32], [9 x i32]* %88, i64 0, i64 %91
  %93 = load i32, i32* %92, align 4
  %94 = add nsw i32 %93, %85
  store i32 %94, i32* %92, align 4
  %95 = load i32, i32* %7, align 4
  %96 = sext i32 %95 to i64
  %97 = getelementptr inbounds [9 x [9 x i32]], [9 x [9 x i32]]* %2, i64 0, i64 %96
  %98 = load i32, i32* %8, align 4
  %99 = sext i32 %98 to i64
  %100 = getelementptr inbounds [9 x i32], [9 x i32]* %97, i64 0, i64 %99
  %101 = load i32, i32* %100, align 4
  %102 = load i32, i32* %7, align 4
  %103 = add nsw i32 %102, 1
  %104 = sext i32 %103 to i64
  %105 = getelementptr inbounds [9 x [9 x i32]], [9 x [9 x i32]]* %3, i64 0, i64 %104
  %106 = load i32, i32* %8, align 4
  %107 = sext i32 %106 to i64
  %108 = getelementptr inbounds [9 x i32], [9 x i32]* %105, i64 0, i64 %107
  %109 = load i32, i32* %108, align 4
  %110 = add nsw i32 %109, %101
  store i32 %110, i32* %108, align 4
  %111 = load i32, i32* %7, align 4
  %112 = sext i32 %111 to i64
  %113 = getelementptr inbounds [9 x [9 x i32]], [9 x [9 x i32]]* %2, i64 0, i64 %112
  %114 = load i32, i32* %8, align 4
  %115 = sext i32 %114 to i64
  %116 = getelementptr inbounds [9 x i32], [9 x i32]* %113, i64 0, i64 %115
  %117 = load i32, i32* %116, align 4
  %118 = load i32, i32* %7, align 4
  %119 = add nsw i32 %118, 1
  %120 = sext i32 %119 to i64
  %121 = getelementptr inbounds [9 x [9 x i32]], [9 x [9 x i32]]* %3, i64 0, i64 %120
  %122 = load i32, i32* %8, align 4
  %123 = add nsw i32 %122, 1
  %124 = sext i32 %123 to i64
  %125 = getelementptr inbounds [9 x i32], [9 x i32]* %121, i64 0, i64 %124
  %126 = load i32, i32* %125, align 4
  %127 = add nsw i32 %126, %117
  store i32 %127, i32* %125, align 4
  %128 = load i32, i32* %7, align 4
  %129 = sext i32 %128 to i64
  %130 = getelementptr inbounds [9 x [9 x i32]], [9 x [9 x i32]]* %2, i64 0, i64 %129
  %131 = load i32, i32* %8, align 4
  %132 = sext i32 %131 to i64
  %133 = getelementptr inbounds [9 x i32], [9 x i32]* %130, i64 0, i64 %132
  %134 = load i32, i32* %133, align 4
  %135 = load i32, i32* %7, align 4
  %136 = add nsw i32 %135, 1
  %137 = sext i32 %136 to i64
  %138 = getelementptr inbounds [9 x [9 x i32]], [9 x [9 x i32]]* %3, i64 0, i64 %137
  %139 = load i32, i32* %8, align 4
  %140 = sub nsw i32 %139, 1
  %141 = sext i32 %140 to i64
  %142 = getelementptr inbounds [9 x i32], [9 x i32]* %138, i64 0, i64 %141
  %143 = load i32, i32* %142, align 4
  %144 = add nsw i32 %143, %134
  store i32 %144, i32* %142, align 4
  %145 = load i32, i32* %7, align 4
  %146 = sext i32 %145 to i64
  %147 = getelementptr inbounds [9 x [9 x i32]], [9 x [9 x i32]]* %2, i64 0, i64 %146
  %148 = load i32, i32* %8, align 4
  %149 = sext i32 %148 to i64
  %150 = getelementptr inbounds [9 x i32], [9 x i32]* %147, i64 0, i64 %149
  %151 = load i32, i32* %150, align 4
  %152 = load i32, i32* %7, align 4
  %153 = sub nsw i32 %152, 1
  %154 = sext i32 %153 to i64
  %155 = getelementptr inbounds [9 x [9 x i32]], [9 x [9 x i32]]* %3, i64 0, i64 %154
  %156 = load i32, i32* %8, align 4
  %157 = sext i32 %156 to i64
  %158 = getelementptr inbounds [9 x i32], [9 x i32]* %155, i64 0, i64 %157
  %159 = load i32, i32* %158, align 4
  %160 = add nsw i32 %159, %151
  store i32 %160, i32* %158, align 4
  %161 = load i32, i32* %7, align 4
  %162 = sext i32 %161 to i64
  %163 = getelementptr inbounds [9 x [9 x i32]], [9 x [9 x i32]]* %2, i64 0, i64 %162
  %164 = load i32, i32* %8, align 4
  %165 = sext i32 %164 to i64
  %166 = getelementptr inbounds [9 x i32], [9 x i32]* %163, i64 0, i64 %165
  %167 = load i32, i32* %166, align 4
  %168 = load i32, i32* %7, align 4
  %169 = sub nsw i32 %168, 1
  %170 = sext i32 %169 to i64
  %171 = getelementptr inbounds [9 x [9 x i32]], [9 x [9 x i32]]* %3, i64 0, i64 %170
  %172 = load i32, i32* %8, align 4
  %173 = add nsw i32 %172, 1
  %174 = sext i32 %173 to i64
  %175 = getelementptr inbounds [9 x i32], [9 x i32]* %171, i64 0, i64 %174
  %176 = load i32, i32* %175, align 4
  %177 = add nsw i32 %176, %167
  store i32 %177, i32* %175, align 4
  %178 = load i32, i32* %7, align 4
  %179 = sext i32 %178 to i64
  %180 = getelementptr inbounds [9 x [9 x i32]], [9 x [9 x i32]]* %2, i64 0, i64 %179
  %181 = load i32, i32* %8, align 4
  %182 = sext i32 %181 to i64
  %183 = getelementptr inbounds [9 x i32], [9 x i32]* %180, i64 0, i64 %182
  %184 = load i32, i32* %183, align 4
  %185 = load i32, i32* %7, align 4
  %186 = sub nsw i32 %185, 1
  %187 = sext i32 %186 to i64
  %188 = getelementptr inbounds [9 x [9 x i32]], [9 x [9 x i32]]* %3, i64 0, i64 %187
  %189 = load i32, i32* %8, align 4
  %190 = sub nsw i32 %189, 1
  %191 = sext i32 %190 to i64
  %192 = getelementptr inbounds [9 x i32], [9 x i32]* %188, i64 0, i64 %191
  %193 = load i32, i32* %192, align 4
  %194 = add nsw i32 %193, %184
  store i32 %194, i32* %192, align 4
  br label %195

195:                                              ; preds = %41, %32
  br label %196

196:                                              ; preds = %195
  %197 = load i32, i32* %8, align 4
  %198 = add nsw i32 %197, 1
  store i32 %198, i32* %8, align 4
  br label %29

199:                                              ; preds = %29
  br label %200

200:                                              ; preds = %199
  %201 = load i32, i32* %7, align 4
  %202 = add nsw i32 %201, 1
  store i32 %202, i32* %7, align 4
  br label %25

203:                                              ; preds = %25
  store i32 0, i32* %9, align 4
  br label %204

204:                                              ; preds = %229, %203
  %205 = load i32, i32* %9, align 4
  %206 = icmp sle i32 %205, 8
  br i1 %206, label %207, label %232

207:                                              ; preds = %204
  store i32 0, i32* %10, align 4
  br label %208

208:                                              ; preds = %225, %207
  %209 = load i32, i32* %10, align 4
  %210 = icmp sle i32 %209, 8
  br i1 %210, label %211, label %228

211:                                              ; preds = %208
  %212 = load i32, i32* %10, align 4
  %213 = sext i32 %212 to i64
  %214 = getelementptr inbounds [9 x [9 x i32]], [9 x [9 x i32]]* %3, i64 0, i64 %213
  %215 = load i32, i32* %9, align 4
  %216 = sext i32 %215 to i64
  %217 = getelementptr inbounds [9 x i32], [9 x i32]* %214, i64 0, i64 %216
  %218 = load i32, i32* %217, align 4
  %219 = load i32, i32* %10, align 4
  %220 = sext i32 %219 to i64
  %221 = getelementptr inbounds [9 x [9 x i32]], [9 x [9 x i32]]* %2, i64 0, i64 %220
  %222 = load i32, i32* %9, align 4
  %223 = sext i32 %222 to i64
  %224 = getelementptr inbounds [9 x i32], [9 x i32]* %221, i64 0, i64 %223
  store i32 %218, i32* %224, align 4
  br label %225

225:                                              ; preds = %211
  %226 = load i32, i32* %10, align 4
  %227 = add nsw i32 %226, 1
  store i32 %227, i32* %10, align 4
  br label %208

228:                                              ; preds = %208
  br label %229

229:                                              ; preds = %228
  %230 = load i32, i32* %9, align 4
  %231 = add nsw i32 %230, 1
  store i32 %231, i32* %9, align 4
  br label %204

232:                                              ; preds = %204
  br label %233

233:                                              ; preds = %232
  %234 = load i32, i32* %6, align 4
  %235 = add nsw i32 %234, 1
  store i32 %235, i32* %6, align 4
  br label %20

236:                                              ; preds = %20
  store i32 0, i32* %9, align 4
  br label %237

237:                                              ; preds = %264, %236
  %238 = load i32, i32* %9, align 4
  %239 = icmp sle i32 %238, 8
  br i1 %239, label %240, label %267

240:                                              ; preds = %237
  store i32 0, i32* %10, align 4
  br label %241

241:                                              ; preds = %253, %240
  %242 = load i32, i32* %10, align 4
  %243 = icmp sle i32 %242, 7
  br i1 %243, label %244, label %256

244:                                              ; preds = %241
  %245 = load i32, i32* %9, align 4
  %246 = sext i32 %245 to i64
  %247 = getelementptr inbounds [9 x [9 x i32]], [9 x [9 x i32]]* %2, i64 0, i64 %246
  %248 = load i32, i32* %10, align 4
  %249 = sext i32 %248 to i64
  %250 = getelementptr inbounds [9 x i32], [9 x i32]* %247, i64 0, i64 %249
  %251 = load i32, i32* %250, align 4
  %252 = call i32 (i8*, ...) @printf(i8* getelementptr inbounds ([4 x i8], [4 x i8]* @.str.1, i64 0, i64 0), i32 %251)
  br label %253

253:                                              ; preds = %244
  %254 = load i32, i32* %10, align 4
  %255 = add nsw i32 %254, 1
  store i32 %255, i32* %10, align 4
  br label %241

256:                                              ; preds = %241
  %257 = load i32, i32* %9, align 4
  %258 = sext i32 %257 to i64
  %259 = getelementptr inbounds [9 x [9 x i32]], [9 x [9 x i32]]* %2, i64 0, i64 %258
  %260 = getelementptr inbounds [9 x i32], [9 x i32]* %259, i64 0, i64 8
  %261 = load i32, i32* %260, align 4
  %262 = call i32 (i8*, ...) @printf(i8* getelementptr inbounds ([3 x i8], [3 x i8]* @.str, i64 0, i64 0), i32 %261)
  %263 = call i32 (i8*, ...) @printf(i8* getelementptr inbounds ([2 x i8], [2 x i8]* @.str.2, i64 0, i64 0))
  br label %264

264:                                              ; preds = %256
  %265 = load i32, i32* %9, align 4
  %266 = add nsw i32 %265, 1
  store i32 %266, i32* %9, align 4
  br label %237

267:                                              ; preds = %237
  %268 = load i32, i32* %1, align 4
  ret i32 %268
}