; Function Attrs: nofree nounwind sspstrong uwtable
define dso_local i32 @main() local_unnamed_addr #0 {
  %1 = alloca [9 x [9 x i32]], align 16
  %2 = bitcast [9 x [9 x i32]]* %1 to i8*
  %3 = alloca [9 x [9 x i32]], align 16
  %4 = bitcast [9 x [9 x i32]]* %3 to i8*
  %5 = alloca i32, align 4
  %6 = alloca i32, align 4
  call void @llvm.lifetime.start.p0i8(i64 324, i8* nonnull %2) #6
  call void @llvm.memset.p0i8.i64(i8* noundef nonnull align 16 dereferenceable(324) %2, i8 0, i64 324, i1 false)
  call void @llvm.lifetime.start.p0i8(i64 324, i8* nonnull %4) #6
  call void @llvm.memset.p0i8.i64(i8* noundef nonnull align 16 dereferenceable(324) %4, i8 0, i64 324, i1 false)
  %7 = bitcast i32* %5 to i8*
  call void @llvm.lifetime.start.p0i8(i64 4, i8* nonnull %7) #6
  %8 = bitcast i32* %6 to i8*
  call void @llvm.lifetime.start.p0i8(i64 4, i8* nonnull %8) #6
  %9 = call i32 (i8*, ...) @__isoc99_scanf(i8* getelementptr inbounds ([3 x i8], [3 x i8]* @.str, i64 0, i64 0), i32* nonnull %5)
  %10 = call i32 (i8*, ...) @__isoc99_scanf(i8* getelementptr inbounds ([3 x i8], [3 x i8]* @.str, i64 0, i64 0), i32* nonnull %6)
  %11 = load i32, i32* %5, align 4, !tbaa !5
  %12 = getelementptr inbounds [9 x [9 x i32]], [9 x [9 x i32]]* %3, i64 0, i64 4, i64 4
  store i32 %11, i32* %12, align 16, !tbaa !5
  %13 = getelementptr inbounds [9 x [9 x i32]], [9 x [9 x i32]]* %1, i64 0, i64 4, i64 4
  store i32 %11, i32* %13, align 16, !tbaa !5
  %14 = load i32, i32* %6, align 4, !tbaa !5
  %15 = icmp slt i32 %14, 1
  br i1 %15, label %100, label %16

16:                                               ; preds = %0
  %17 = getelementptr inbounds [9 x [9 x i32]], [9 x [9 x i32]]* %1, i64 0, i64 1, i64 0
  %18 = bitcast i32* %17 to i8*
  %19 = getelementptr inbounds [9 x [9 x i32]], [9 x [9 x i32]]* %3, i64 0, i64 1, i64 0
  %20 = bitcast i32* %19 to i8*
  %21 = getelementptr inbounds [9 x [9 x i32]], [9 x [9 x i32]]* %1, i64 0, i64 2, i64 0
  %22 = bitcast i32* %21 to i8*
  %23 = getelementptr inbounds [9 x [9 x i32]], [9 x [9 x i32]]* %3, i64 0, i64 2, i64 0
  %24 = bitcast i32* %23 to i8*
  %25 = getelementptr inbounds [9 x [9 x i32]], [9 x [9 x i32]]* %1, i64 0, i64 3, i64 0
  %26 = bitcast i32* %25 to i8*
  %27 = getelementptr inbounds [9 x [9 x i32]], [9 x [9 x i32]]* %3, i64 0, i64 3, i64 0
  %28 = bitcast i32* %27 to i8*
  %29 = getelementptr inbounds [9 x [9 x i32]], [9 x [9 x i32]]* %1, i64 0, i64 4, i64 0
  %30 = bitcast i32* %29 to i8*
  %31 = getelementptr inbounds [9 x [9 x i32]], [9 x [9 x i32]]* %3, i64 0, i64 4, i64 0
  %32 = bitcast i32* %31 to i8*
  %33 = getelementptr inbounds [9 x [9 x i32]], [9 x [9 x i32]]* %1, i64 0, i64 5, i64 0
  %34 = bitcast i32* %33 to i8*
  %35 = getelementptr inbounds [9 x [9 x i32]], [9 x [9 x i32]]* %3, i64 0, i64 5, i64 0
  %36 = bitcast i32* %35 to i8*
  %37 = getelementptr inbounds [9 x [9 x i32]], [9 x [9 x i32]]* %1, i64 0, i64 6, i64 0
  %38 = bitcast i32* %37 to i8*
  %39 = getelementptr inbounds [9 x [9 x i32]], [9 x [9 x i32]]* %3, i64 0, i64 6, i64 0
  %40 = bitcast i32* %39 to i8*
  %41 = getelementptr inbounds [9 x [9 x i32]], [9 x [9 x i32]]* %1, i64 0, i64 7, i64 0
  %42 = bitcast i32* %41 to i8*
  %43 = getelementptr inbounds [9 x [9 x i32]], [9 x [9 x i32]]* %3, i64 0, i64 7, i64 0
  %44 = bitcast i32* %43 to i8*
  %45 = getelementptr inbounds [9 x [9 x i32]], [9 x [9 x i32]]* %1, i64 0, i64 8, i64 0
  %46 = bitcast i32* %45 to i8*
  %47 = getelementptr inbounds [9 x [9 x i32]], [9 x [9 x i32]]* %3, i64 0, i64 8, i64 0
  %48 = bitcast i32* %47 to i8*
  br label %49

49:                                               ; preds = %16, %97
  %50 = phi i32 [ %98, %97 ], [ 1, %16 ]
  br label %51

51:                                               ; preds = %49, %95
  %52 = phi i64 [ 0, %49 ], [ %53, %95 ]
  %53 = add nuw nsw i64 %52, 1
  %54 = add nsw i64 %52, -1
  br label %55

55:                                               ; preds = %51, %92
  %56 = phi i64 [ 0, %51 ], [ %93, %92 ]
  %57 = getelementptr inbounds [9 x [9 x i32]], [9 x [9 x i32]]* %1, i64 0, i64 %52, i64 %56
  %58 = load i32, i32* %57, align 4, !tbaa !5
  %59 = icmp eq i32 %58, 0
  br i1 %59, label %60, label %62

60:                                               ; preds = %55
  %61 = add nuw nsw i64 %56, 1
  br label %92

62:                                               ; preds = %55
  %63 = getelementptr inbounds [9 x [9 x i32]], [9 x [9 x i32]]* %3, i64 0, i64 %52, i64 %56
  %64 = load i32, i32* %63, align 4, !tbaa !5
  %65 = add nsw i32 %64, %58
  store i32 %65, i32* %63, align 4, !tbaa !5
  %66 = add nuw nsw i64 %56, 1
  %67 = getelementptr inbounds [9 x [9 x i32]], [9 x [9 x i32]]* %3, i64 0, i64 %52, i64 %66
  %68 = load i32, i32* %67, align 4, !tbaa !5
  %69 = add nsw i32 %68, %58
  store i32 %69, i32* %67, align 4, !tbaa !5
  %70 = add nsw i64 %56, -1
  %71 = getelementptr inbounds [9 x [9 x i32]], [9 x [9 x i32]]* %3, i64 0, i64 %52, i64 %70
  %72 = load i32, i32* %71, align 4, !tbaa !5
  %73 = add nsw i32 %72, %58
  store i32 %73, i32* %71, align 4, !tbaa !5
  %74 = getelementptr inbounds [9 x [9 x i32]], [9 x [9 x i32]]* %3, i64 0, i64 %53, i64 %56
  %75 = load i32, i32* %74, align 4, !tbaa !5
  %76 = add nsw i32 %75, %58
  store i32 %76, i32* %74, align 4, !tbaa !5
  %77 = getelementptr inbounds [9 x [9 x i32]], [9 x [9 x i32]]* %3, i64 0, i64 %53, i64 %66
  %78 = load i32, i32* %77, align 4, !tbaa !5
  %79 = add nsw i32 %78, %58
  store i32 %79, i32* %77, align 4, !tbaa !5
  %80 = getelementptr inbounds [9 x [9 x i32]], [9 x [9 x i32]]* %3, i64 0, i64 %53, i64 %70
  %81 = load i32, i32* %80, align 4, !tbaa !5
  %82 = add nsw i32 %81, %58
  store i32 %82, i32* %80, align 4, !tbaa !5
  %83 = getelementptr inbounds [9 x [9 x i32]], [9 x [9 x i32]]* %3, i64 0, i64 %54, i64 %56
  %84 = load i32, i32* %83, align 4, !tbaa !5
  %85 = add nsw i32 %84, %58
  store i32 %85, i32* %83, align 4, !tbaa !5
  %86 = getelementptr inbounds [9 x [9 x i32]], [9 x [9 x i32]]* %3, i64 0, i64 %54, i64 %66
  %87 = load i32, i32* %86, align 4, !tbaa !5
  %88 = add nsw i32 %87, %58
  store i32 %88, i32* %86, align 4, !tbaa !5
  %89 = getelementptr inbounds [9 x [9 x i32]], [9 x [9 x i32]]* %3, i64 0, i64 %54, i64 %70
  %90 = load i32, i32* %89, align 4, !tbaa !5
  %91 = add nsw i32 %90, %58
  store i32 %91, i32* %89, align 4, !tbaa !5
  br label %92

92:                                               ; preds = %60, %62
  %93 = phi i64 [ %61, %60 ], [ %66, %62 ]
  %94 = icmp eq i64 %93, 9
  br i1 %94, label %95, label %55, !llvm.loop !9

95:                                               ; preds = %92
  %96 = icmp eq i64 %53, 9
  br i1 %96, label %97, label %51, !llvm.loop !11

97:                                               ; preds = %95
  call void @llvm.memcpy.p0i8.p0i8.i64(i8* noundef nonnull align 16 dereferenceable(36) %2, i8* noundef nonnull align 16 dereferenceable(36) %4, i64 36, i1 false)
  call void @llvm.memcpy.p0i8.p0i8.i64(i8* noundef nonnull align 4 dereferenceable(36) %18, i8* noundef nonnull align 4 dereferenceable(36) %20, i64 36, i1 false)
  call void @llvm.memcpy.p0i8.p0i8.i64(i8* noundef nonnull align 8 dereferenceable(36) %22, i8* noundef nonnull align 8 dereferenceable(36) %24, i64 36, i1 false)
  call void @llvm.memcpy.p0i8.p0i8.i64(i8* noundef nonnull align 4 dereferenceable(36) %26, i8* noundef nonnull align 4 dereferenceable(36) %28, i64 36, i1 false)
  call void @llvm.memcpy.p0i8.p0i8.i64(i8* noundef nonnull align 16 dereferenceable(36) %30, i8* noundef nonnull align 16 dereferenceable(36) %32, i64 36, i1 false)
  call void @llvm.memcpy.p0i8.p0i8.i64(i8* noundef nonnull align 4 dereferenceable(36) %34, i8* noundef nonnull align 4 dereferenceable(36) %36, i64 36, i1 false)
  call void @llvm.memcpy.p0i8.p0i8.i64(i8* noundef nonnull align 8 dereferenceable(36) %38, i8* noundef nonnull align 8 dereferenceable(36) %40, i64 36, i1 false)
  call void @llvm.memcpy.p0i8.p0i8.i64(i8* noundef nonnull align 4 dereferenceable(36) %42, i8* noundef nonnull align 4 dereferenceable(36) %44, i64 36, i1 false)
  call void @llvm.memcpy.p0i8.p0i8.i64(i8* noundef nonnull align 16 dereferenceable(36) %46, i8* noundef nonnull align 16 dereferenceable(36) %48, i64 36, i1 false)
  %98 = add nuw i32 %50, 1
  %99 = icmp eq i32 %50, %14
  br i1 %99, label %100, label %49, !llvm.loop !12

100:                                              ; preds = %97, %0
  br label %101

101:                                              ; preds = %100, %101
  %102 = phi i64 [ %131, %101 ], [ 0, %100 ]
  %103 = getelementptr inbounds [9 x [9 x i32]], [9 x [9 x i32]]* %1, i64 0, i64 %102, i64 0
  %104 = load i32, i32* %103, align 4, !tbaa !5
  %105 = call i32 (i8*, ...) @printf(i8* nonnull dereferenceable(1) getelementptr inbounds ([4 x i8], [4 x i8]* @.str.1, i64 0, i64 0), i32 %104)
  %106 = getelementptr inbounds [9 x [9 x i32]], [9 x [9 x i32]]* %1, i64 0, i64 %102, i64 1
  %107 = load i32, i32* %106, align 4, !tbaa !5
  %108 = call i32 (i8*, ...) @printf(i8* nonnull dereferenceable(1) getelementptr inbounds ([4 x i8], [4 x i8]* @.str.1, i64 0, i64 0), i32 %107)
  %109 = getelementptr inbounds [9 x [9 x i32]], [9 x [9 x i32]]* %1, i64 0, i64 %102, i64 2
  %110 = load i32, i32* %109, align 4, !tbaa !5
  %111 = call i32 (i8*, ...) @printf(i8* nonnull dereferenceable(1) getelementptr inbounds ([4 x i8], [4 x i8]* @.str.1, i64 0, i64 0), i32 %110)
  %112 = getelementptr inbounds [9 x [9 x i32]], [9 x [9 x i32]]* %1, i64 0, i64 %102, i64 3
  %113 = load i32, i32* %112, align 4, !tbaa !5
  %114 = call i32 (i8*, ...) @printf(i8* nonnull dereferenceable(1) getelementptr inbounds ([4 x i8], [4 x i8]* @.str.1, i64 0, i64 0), i32 %113)
  %115 = getelementptr inbounds [9 x [9 x i32]], [9 x [9 x i32]]* %1, i64 0, i64 %102, i64 4
  %116 = load i32, i32* %115, align 4, !tbaa !5
  %117 = call i32 (i8*, ...) @printf(i8* nonnull dereferenceable(1) getelementptr inbounds ([4 x i8], [4 x i8]* @.str.1, i64 0, i64 0), i32 %116)
  %118 = getelementptr inbounds [9 x [9 x i32]], [9 x [9 x i32]]* %1, i64 0, i64 %102, i64 5
  %119 = load i32, i32* %118, align 4, !tbaa !5
  %120 = call i32 (i8*, ...) @printf(i8* nonnull dereferenceable(1) getelementptr inbounds ([4 x i8], [4 x i8]* @.str.1, i64 0, i64 0), i32 %119)
  %121 = getelementptr inbounds [9 x [9 x i32]], [9 x [9 x i32]]* %1, i64 0, i64 %102, i64 6
  %122 = load i32, i32* %121, align 4, !tbaa !5
  %123 = call i32 (i8*, ...) @printf(i8* nonnull dereferenceable(1) getelementptr inbounds ([4 x i8], [4 x i8]* @.str.1, i64 0, i64 0), i32 %122)
  %124 = getelementptr inbounds [9 x [9 x i32]], [9 x [9 x i32]]* %1, i64 0, i64 %102, i64 7
  %125 = load i32, i32* %124, align 4, !tbaa !5
  %126 = call i32 (i8*, ...) @printf(i8* nonnull dereferenceable(1) getelementptr inbounds ([4 x i8], [4 x i8]* @.str.1, i64 0, i64 0), i32 %125)
  %127 = getelementptr inbounds [9 x [9 x i32]], [9 x [9 x i32]]* %1, i64 0, i64 %102, i64 8
  %128 = load i32, i32* %127, align 4, !tbaa !5
  %129 = call i32 (i8*, ...) @printf(i8* nonnull dereferenceable(1) getelementptr inbounds ([3 x i8], [3 x i8]* @.str, i64 0, i64 0), i32 %128)
  %130 = call i32 @putchar(i32 10)
  %131 = add nuw nsw i64 %102, 1
  %132 = icmp eq i64 %131, 9
  br i1 %132, label %133, label %101, !llvm.loop !13

133:                                              ; preds = %101
  call void @llvm.lifetime.end.p0i8(i64 4, i8* nonnull %8) #6
  call void @llvm.lifetime.end.p0i8(i64 4, i8* nonnull %7) #6
  call void @llvm.lifetime.end.p0i8(i64 324, i8* nonnull %4) #6
  call void @llvm.lifetime.end.p0i8(i64 324, i8* nonnull %2) #6
  ret i32 0
}